; Function Attrs: mustprogress uwtable
define noundef ptr @_ZNK6icu_7517ResourceDataValue9getStringERiR10UErrorCode(ptr nocapture noundef nonnull readonly align 8 dereferenceable(29) %this, ptr nocapture noundef nonnull writeonly align 4 dereferenceable(4) %length, ptr nocapture noundef nonnull align 4 dereferenceable(4) %errorCode) unnamed_addr #0 align 2 {
entry:
  %0 = load i32, ptr %errorCode, align 4
  %cmp.i = icmp slt i32 %0, 1
  br i1 %cmp.i, label %if.end, label %return

if.end:                                           ; preds = %entry
  %pResData.i = getelementptr inbounds i8, ptr %this, i64 8
  %1 = load ptr, ptr %pResData.i, align 8
  %res = getelementptr inbounds i8, ptr %this, i64 24
  %2 = load i32, ptr %res, align 8
  %shr.mask.i.i = and i32 %2, -268435456
  %cmp.i.i = icmp eq i32 %shr.mask.i.i, 1610612736
  br i1 %cmp.i.i, label %if.then.i.i, label %if.else30.i.i

if.then.i.i:                                      ; preds = %if.end
  %and.i.i = and i32 %2, 268435455
  %poolStringIndexLimit.i.i = getelementptr inbounds i8, ptr %1, i64 48
  %3 = load i32, ptr %poolStringIndexLimit.i.i, align 8
  %cmp1.i.i = icmp slt i32 %and.i.i, %3
  %sub.i.i = select i1 %cmp1.i.i, i32 0, i32 %3
  %sub.sink.i.i = sub i32 %and.i.i, %sub.i.i
  %.sink.in.i.v.i = select i1 %cmp1.i.i, i64 40, i64 16
  %.sink.in.i.i = getelementptr inbounds i8, ptr %1, i64 %.sink.in.i.v.i
  %.sink.i.i = load ptr, ptr %.sink.in.i.i, align 8
  %idx.ext4.i.i = zext i32 %sub.sink.i.i to i64
  %add.ptr5.i.i = getelementptr inbounds i16, ptr %.sink.i.i, i64 %idx.ext4.i.i
  %4 = load i16, ptr %add.ptr5.i.i, align 2
  %conv.i.i = zext i16 %4 to i32
  %and6.i.i = and i32 %conv.i.i, 64512
  %cmp7.i.i = icmp eq i32 %and6.i.i, 56320
  br i1 %cmp7.i.i, label %if.else9.i.i, label %if.then8.i.i

if.then8.i.i:                                     ; preds = %if.then.i.i
  %call.i.i = tail call i32 @u_strlen_75(ptr noundef nonnull %add.ptr5.i.i)
  br label %_ZN6icu_7513res_getStringERKNS_14ResourceTracerEPK12ResourceDatajPi.exit.thread

if.else9.i.i:                                     ; preds = %if.then.i.i
  %cmp10.i.i = icmp ult i16 %4, -8209
  br i1 %cmp10.i.i, label %if.then11.i.i, label %if.else13.i.i

if.then11.i.i:                                    ; preds = %if.else9.i.i
  %and12.i.i = and i32 %conv.i.i, 1023
  %incdec.ptr.i.i = getelementptr inbounds i8, ptr %add.ptr5.i.i, i64 2
  br label %_ZN6icu_7513res_getStringERKNS_14ResourceTracerEPK12ResourceDatajPi.exit.thread

if.else13.i.i:                                    ; preds = %if.else9.i.i
  %cmp14.i.i = icmp ult i16 %4, -8193
  br i1 %cmp14.i.i, label %if.then15.i.i, label %if.else19.i.i

if.then15.i.i:                                    ; preds = %if.else13.i.i
  %sub16.i.i = shl nuw i32 %conv.i.i, 16
  %shl.i.i = add nsw i32 %sub16.i.i, 537985024
  %arrayidx.i.i = getelementptr inbounds i8, ptr %add.ptr5.i.i, i64 2
  %5 = load i16, ptr %arrayidx.i.i, align 2
  %conv17.i.i = zext i16 %5 to i32
  %or.i.i = or disjoint i32 %shl.i.i, %conv17.i.i
  %add.ptr18.i.i = getelementptr inbounds i8, ptr %add.ptr5.i.i, i64 4
  br label %_ZN6icu_7513res_getStringERKNS_14ResourceTracerEPK12ResourceDatajPi.exit.thread

if.else19.i.i:                                    ; preds = %if.else13.i.i
  %arrayidx20.i.i = getelementptr inbounds i8, ptr %add.ptr5.i.i, i64 2
  %6 = load i16, ptr %arrayidx20.i.i, align 2
  %conv21.i.i = zext i16 %6 to i32
  %shl22.i.i = shl nuw i32 %conv21.i.i, 16
  %arrayidx23.i.i = getelementptr inbounds i8, ptr %add.ptr5.i.i, i64 4
  %7 = load i16, ptr %arrayidx23.i.i, align 2
  %conv24.i.i = zext i16 %7 to i32
  %or25.i.i = or disjoint i32 %shl22.i.i, %conv24.i.i
  %add.ptr26.i.i = getelementptr inbounds i8, ptr %add.ptr5.i.i, i64 6
  br label %_ZN6icu_7513res_getStringERKNS_14ResourceTracerEPK12ResourceDatajPi.exit.thread

if.else30.i.i:                                    ; preds = %if.end
  %cmp31.i.i = icmp ult i32 %2, 268435456
  br i1 %cmp31.i.i, label %if.then32.i.i, label %if.then4

if.then32.i.i:                                    ; preds = %if.else30.i.i
  %cmp33.i.i = icmp eq i32 %2, 0
  br i1 %cmp33.i.i, label %cond.end.i.i, label %cond.false.i.i

cond.false.i.i:                                   ; preds = %if.then32.i.i
  %pRoot.i.i = getelementptr inbounds i8, ptr %1, i64 8
  %8 = load ptr, ptr %pRoot.i.i, align 8
  %idx.ext34.i.i = zext nneg i32 %2 to i64
  %add.ptr35.i.i = getelementptr inbounds i32, ptr %8, i64 %idx.ext34.i.i
  br label %cond.end.i.i

cond.end.i.i:                                     ; preds = %cond.false.i.i, %if.then32.i.i
  %cond.i.i = phi ptr [ %add.ptr35.i.i, %cond.false.i.i ], [ @_ZL12gEmptyString, %if.then32.i.i ]
  %incdec.ptr36.i.i = getelementptr inbounds i8, ptr %cond.i.i, i64 4
  %9 = load i32, ptr %cond.i.i, align 4
  br label %_ZN6icu_7513res_getStringERKNS_14ResourceTracerEPK12ResourceDatajPi.exit.thread

_ZN6icu_7513res_getStringERKNS_14ResourceTracerEPK12ResourceDatajPi.exit.thread: ; preds = %if.then11.i.i, %if.then15.i.i, %if.else19.i.i, %if.then8.i.i, %cond.end.i.i
  %length.0.i.i.ph = phi i32 [ %9, %cond.end.i.i ], [ %call.i.i, %if.then8.i.i ], [ %or25.i.i, %if.else19.i.i ], [ %or.i.i, %if.then15.i.i ], [ %and12.i.i, %if.then11.i.i ]
  %p.1.i.i.ph = phi ptr [ %incdec.ptr36.i.i, %cond.end.i.i ], [ %add.ptr5.i.i, %if.then8.i.i ], [ %add.ptr26.i.i, %if.else19.i.i ], [ %add.ptr18.i.i, %if.then15.i.i ], [ %incdec.ptr.i.i, %if.then11.i.i ]
  store i32 %length.0.i.i.ph, ptr %length, align 4
  br label %return

if.then4:                                         ; preds = %if.else30.i.i
  store i32 0, ptr %length, align 4
  store i32 17, ptr %errorCode, align 4
  br label %return

return:                                           ; preds = %_ZN6icu_7513res_getStringERKNS_14ResourceTracerEPK12ResourceDatajPi.exit.thread, %if.then4, %entry
  %retval.0 = phi ptr [ null, %entry ], [ null, %if.then4 ], [ %p.1.i.i.ph, %_ZN6icu_7513res_getStringERKNS_14ResourceTracerEPK12ResourceDatajPi.exit.thread ]
  ret ptr %retval.0
}